target datalayout = "e-m:e-p270:32:32-p271:32:32-p272:64:64-i64:64-i128:128-f80:128-n8:16:32:64-S128"
target triple = "x86_64-pc-linux-gnu"

; Function Attrs: mustprogress nounwind uwtable
define hidden void @_Z8LUPSolvePPdPiS_iS_(ptr noundef %0, ptr noundef %1, ptr noundef %2, i32 noundef %3, ptr noundef %4) #0 {
  %6 = alloca ptr, align 8
  %7 = alloca ptr, align 8
  %8 = alloca ptr, align 8
  %9 = alloca i32, align 4
  %10 = alloca ptr, align 8
  %11 = alloca i32, align 4
  %12 = alloca i32, align 4
  %13 = alloca i32, align 4
  %14 = alloca i32, align 4
  store ptr %0, ptr %6, align 8
  store ptr %1, ptr %7, align 8
  store ptr %2, ptr %8, align 8
  store i32 %3, ptr %9, align 4
  store ptr %4, ptr %10, align 8
  store i32 0, ptr %11, align 4
  br label %15

15:                                               ; preds = %63, %5
  %16 = load i32, ptr %11, align 4
  %17 = load i32, ptr %9, align 4
  %18 = icmp slt i32 %16, %17
  br i1 %18, label %19, label %66

19:                                               ; preds = %15
  %20 = load ptr, ptr %8, align 8
  %21 = load ptr, ptr %7, align 8
  %22 = load i32, ptr %11, align 4
  %23 = sext i32 %22 to i64
  %24 = getelementptr inbounds i32, ptr %21, i64 %23
  %25 = load i32, ptr %24, align 4
  %26 = sext i32 %25 to i64
  %27 = getelementptr inbounds double, ptr %20, i64 %26
  %28 = load double, ptr %27, align 8
  %29 = load ptr, ptr %10, align 8
  %30 = load i32, ptr %11, align 4
  %31 = sext i32 %30 to i64
  %32 = getelementptr inbounds double, ptr %29, i64 %31
  store double %28, ptr %32, align 8
  store i32 0, ptr %12, align 4
  br label %33

33:                                               ; preds = %59, %19
  %34 = load i32, ptr %12, align 4
  %35 = load i32, ptr %11, align 4
  %36 = icmp slt i32 %34, %35
  br i1 %36, label %37, label %62

37:                                               ; preds = %33
  %38 = load ptr, ptr %6, align 8
  %39 = load i32, ptr %11, align 4
  %40 = sext i32 %39 to i64
  %41 = getelementptr inbounds ptr, ptr %38, i64 %40
  %42 = load ptr, ptr %41, align 8
  %43 = load i32, ptr %12, align 4
  %44 = sext i32 %43 to i64
  %45 = getelementptr inbounds double, ptr %42, i64 %44
  %46 = load double, ptr %45, align 8
  %47 = load ptr, ptr %10, align 8
  %48 = load i32, ptr %12, align 4
  %49 = sext i32 %48 to i64
  %50 = getelementptr inbounds double, ptr %47, i64 %49
  %51 = load double, ptr %50, align 8
  %52 = fmul contract double %46, %51
  %53 = load ptr, ptr %10, align 8
  %54 = load i32, ptr %11, align 4
  %55 = sext i32 %54 to i64
  %56 = getelementptr inbounds double, ptr %53, i64 %55
  %57 = load double, ptr %56, align 8
  %58 = fsub contract double %57, %52
  store double %58, ptr %56, align 8
  br label %59

59:                                               ; preds = %37
  %60 = load i32, ptr %12, align 4
  %61 = add nsw i32 %60, 1
  store i32 %61, ptr %12, align 4
  br label %33, !llvm.loop !12

62:                                               ; preds = %33
  br label %63

63:                                               ; preds = %62
  %64 = load i32, ptr %11, align 4
  %65 = add nsw i32 %64, 1
  store i32 %65, ptr %11, align 4
  br label %15, !llvm.loop !13

66:                                               ; preds = %15
  %67 = load i32, ptr %9, align 4
  %68 = sub nsw i32 %67, 1
  store i32 %68, ptr %13, align 4
  br label %69

69:                                               ; preds = %124, %66
  %70 = load i32, ptr %13, align 4
  %71 = icmp sge i32 %70, 0
  br i1 %71, label %72, label %127

72:                                               ; preds = %69
  %73 = load i32, ptr %13, align 4
  %74 = add nsw i32 %73, 1
  store i32 %74, ptr %14, align 4
  br label %75

75:                                               ; preds = %101, %72
  %76 = load i32, ptr %14, align 4
  %77 = load i32, ptr %9, align 4
  %78 = icmp slt i32 %76, %77
  br i1 %78, label %79, label %104

79:                                               ; preds = %75
  %80 = load ptr, ptr %6, align 8
  %81 = load i32, ptr %13, align 4
  %82 = sext i32 %81 to i64
  %83 = getelementptr inbounds ptr, ptr %80, i64 %82
  %84 = load ptr, ptr %83, align 8
  %85 = load i32, ptr %14, align 4
  %86 = sext i32 %85 to i64
  %87 = getelementptr inbounds double, ptr %84, i64 %86
  %88 = load double, ptr %87, align 8
  %89 = load ptr, ptr %10, align 8
  %90 = load i32, ptr %14, align 4
  %91 = sext i32 %90 to i64
  %92 = getelementptr inbounds double, ptr %89, i64 %91
  %93 = load double, ptr %92, align 8
  %94 = fmul contract double %88, %93
  %95 = load ptr, ptr %10, align 8
  %96 = load i32, ptr %13, align 4
  %97 = sext i32 %96 to i64
  %98 = getelementptr inbounds double, ptr %95, i64 %97
  %99 = load double, ptr %98, align 8
  %100 = fsub contract double %99, %94
  store double %100, ptr %98, align 8
  br label %101

101:                                              ; preds = %79
  %102 = load i32, ptr %14, align 4
  %103 = add nsw i32 %102, 1
  store i32 %103, ptr %14, align 4
  br label %75, !llvm.loop !14

104:                                              ; preds = %75
  %105 = load ptr, ptr %10, align 8
  %106 = load i32, ptr %13, align 4
  %107 = sext i32 %106 to i64
  %108 = getelementptr inbounds double, ptr %105, i64 %107
  %109 = load double, ptr %108, align 8
  %110 = load ptr, ptr %6, align 8
  %111 = load i32, ptr %13, align 4
  %112 = sext i32 %111 to i64
  %113 = getelementptr inbounds ptr, ptr %110, i64 %112
  %114 = load ptr, ptr %113, align 8
  %115 = load i32, ptr %13, align 4
  %116 = sext i32 %115 to i64
  %117 = getelementptr inbounds double, ptr %114, i64 %116
  %118 = load double, ptr %117, align 8
  %119 = fdiv contract double %109, %118
  %120 = load ptr, ptr %10, align 8
  %121 = load i32, ptr %13, align 4
  %122 = sext i32 %121 to i64
  %123 = getelementptr inbounds double, ptr %120, i64 %122
  store double %119, ptr %123, align 8
  br label %124

124:                                              ; preds = %104
  %125 = load i32, ptr %13, align 4
  %126 = add nsw i32 %125, -1
  store i32 %126, ptr %13, align 4
  br label %69, !llvm.loop !15

127:                                              ; preds = %69
  ret void
}