; Function Attrs: mustprogress nofree norecurse nosync nounwind memory(read, argmem: readwrite, inaccessiblemem: none) uwtable
define hidden void @_Z8LUPSolvePPdPiS_iS_(ptr nocapture noundef readonly %0, ptr nocapture noundef readonly %1, ptr nocapture noundef readonly %2, i32 noundef %3, ptr nocapture noundef %4) local_unnamed_addr #3 {
  %6 = icmp sgt i32 %3, 0
  br i1 %6, label %.lr.ph46.preheader, label %._crit_edge53

.lr.ph46.preheader:                               ; preds = %5
  %wide.trip.count58 = zext nneg i32 %3 to i64
  br label %.lr.ph46

.preheader42:                                     ; preds = %._crit_edge
  br i1 %6, label %.preheader.preheader, label %._crit_edge53

.preheader.preheader:                             ; preds = %.preheader42
  %7 = zext nneg i32 %3 to i64
  %8 = zext nneg i32 %3 to i64
  br label %.preheader

.lr.ph46:                                         ; preds = %.lr.ph46.preheader, %._crit_edge
  %indvars.iv55 = phi i64 [ 0, %.lr.ph46.preheader ], [ %indvars.iv.next56, %._crit_edge ]
  %9 = getelementptr inbounds i32, ptr %1, i64 %indvars.iv55
  %10 = load i32, ptr %9, align 4
  %11 = sext i32 %10 to i64
  %12 = getelementptr inbounds double, ptr %2, i64 %11
  %13 = load double, ptr %12, align 8
  %14 = getelementptr inbounds double, ptr %4, i64 %indvars.iv55
  store double %13, ptr %14, align 8
  %.not = icmp eq i64 %indvars.iv55, 0
  br i1 %.not, label %._crit_edge, label %.lr.ph

.lr.ph:                                           ; preds = %.lr.ph46
  %15 = getelementptr inbounds ptr, ptr %0, i64 %indvars.iv55
  br label %16

16:                                               ; preds = %.lr.ph, %16
  %17 = phi double [ %13, %.lr.ph ], [ %24, %16 ]
  %indvars.iv = phi i64 [ 0, %.lr.ph ], [ %indvars.iv.next, %16 ]
  %18 = load ptr, ptr %15, align 8
  %19 = getelementptr inbounds double, ptr %18, i64 %indvars.iv
  %20 = load double, ptr %19, align 8
  %21 = getelementptr inbounds double, ptr %4, i64 %indvars.iv
  %22 = load double, ptr %21, align 8
  %23 = fmul contract double %20, %22
  %24 = fsub contract double %17, %23
  store double %24, ptr %14, align 8
  %indvars.iv.next = add nuw nsw i64 %indvars.iv, 1
  %exitcond.not = icmp eq i64 %indvars.iv.next, %indvars.iv55
  br i1 %exitcond.not, label %._crit_edge, label %16, !llvm.loop !12

._crit_edge:                                      ; preds = %16, %.lr.ph46
  %indvars.iv.next56 = add nuw nsw i64 %indvars.iv55, 1
  %exitcond59.not = icmp eq i64 %indvars.iv.next56, %wide.trip.count58
  br i1 %exitcond59.not, label %.preheader42, label %.lr.ph46, !llvm.loop !13

.preheader:                                       ; preds = %.preheader.preheader, %._crit_edge49
  %indvars.iv60 = phi i64 [ %7, %.preheader.preheader ], [ %indvars.iv.next61, %._crit_edge49 ]
  %indvars.iv.next61 = add nsw i64 %indvars.iv60, -1
  %25 = icmp slt i64 %indvars.iv60, %8
  br i1 %25, label %.lr.ph48, label %.preheader.._crit_edge49_crit_edge

.preheader.._crit_edge49_crit_edge:               ; preds = %.preheader
  %.phi.trans.insert = getelementptr inbounds double, ptr %4, i64 %indvars.iv.next61
  %.pre66 = load double, ptr %.phi.trans.insert, align 8
  br label %._crit_edge49

.lr.ph48:                                         ; preds = %.preheader
  %26 = getelementptr inbounds ptr, ptr %0, i64 %indvars.iv.next61
  %27 = getelementptr inbounds double, ptr %4, i64 %indvars.iv.next61
  %.pre = load double, ptr %27, align 8
  br label %28

28:                                               ; preds = %.lr.ph48, %28
  %29 = phi double [ %.pre, %.lr.ph48 ], [ %36, %28 ]
  %indvars.iv62 = phi i64 [ %indvars.iv60, %.lr.ph48 ], [ %indvars.iv.next63, %28 ]
  %30 = load ptr, ptr %26, align 8
  %31 = getelementptr inbounds double, ptr %30, i64 %indvars.iv62
  %32 = load double, ptr %31, align 8
  %33 = getelementptr inbounds double, ptr %4, i64 %indvars.iv62
  %34 = load double, ptr %33, align 8
  %35 = fmul contract double %32, %34
  %36 = fsub contract double %29, %35
  store double %36, ptr %27, align 8
  %indvars.iv.next63 = add nuw nsw i64 %indvars.iv62, 1
  %37 = trunc i64 %indvars.iv.next63 to i32
  %38 = icmp slt i32 %37, %3
  br i1 %38, label %28, label %._crit_edge49, !llvm.loop !14

._crit_edge49:                                    ; preds = %28, %.preheader.._crit_edge49_crit_edge
  %39 = phi double [ %.pre66, %.preheader.._crit_edge49_crit_edge ], [ %36, %28 ]
  %40 = getelementptr inbounds double, ptr %4, i64 %indvars.iv.next61
  %41 = getelementptr inbounds ptr, ptr %0, i64 %indvars.iv.next61
  %42 = load ptr, ptr %41, align 8
  %43 = getelementptr inbounds double, ptr %42, i64 %indvars.iv.next61
  %44 = load double, ptr %43, align 8
  %45 = fdiv contract double %39, %44
  store double %45, ptr %40, align 8
  %46 = icmp sgt i64 %indvars.iv60, 1
  br i1 %46, label %.preheader, label %._crit_edge53, !llvm.loop !15

._crit_edge53:                                    ; preds = %._crit_edge49, %5, %.preheader42
  ret void
}